; Function Attrs: nounwind uwtable
define ptr @l_Lean_isReducible___rarg___lambda__1(ptr noundef %0, i8 noundef zeroext %1) local_unnamed_addr #2 {
  %3 = icmp eq i8 %1, 0
  %4 = getelementptr inbounds nuw i8, ptr %0, i64 8
  %5 = load ptr, ptr %4, align 8, !tbaa !9
  %6 = ptrtoint ptr %5 to i64
  %7 = and i64 %6, 1
  %.not51 = icmp eq i64 %7, 0
  br i1 %3, label %8, label %lean_dec.exit24

8:                                                ; preds = %2
  br i1 %.not51, label %9, label %lean_inc.exit29

9:                                                ; preds = %8
  %.val.i = load i32, ptr %5, align 4, !tbaa !4
  %10 = icmp sgt i32 %.val.i, 0
  br i1 %10, label %11, label %13, !prof !11

11:                                               ; preds = %9
  %12 = add nuw i32 %.val.i, 1
  store i32 %12, ptr %5, align 4, !tbaa !4
  br label %lean_inc.exit29

13:                                               ; preds = %9
  %.not.i39 = icmp eq i32 %.val.i, 0
  br i1 %.not.i39, label %lean_inc.exit29, label %14

14:                                               ; preds = %13
  tail call void @lean_inc_ref_cold(ptr noundef nonnull %5) #6
  br label %lean_inc.exit29

lean_inc.exit29:                                  ; preds = %14, %13, %11, %8
  %15 = ptrtoint ptr %0 to i64
  %16 = and i64 %15, 1
  %.not52 = icmp eq i64 %16, 0
  br i1 %.not52, label %17, label %lean_dec.exit26

17:                                               ; preds = %lean_inc.exit29
  %18 = load i32, ptr %0, align 4, !tbaa !4
  %19 = icmp sgt i32 %18, 1
  br i1 %19, label %20, label %22, !prof !11

20:                                               ; preds = %17
  %21 = add nsw i32 %18, -1
  store i32 %21, ptr %0, align 4, !tbaa !4
  br label %lean_dec.exit26

22:                                               ; preds = %17
  %.not.i = icmp eq i32 %18, 0
  br i1 %.not.i, label %lean_dec.exit26, label %23

23:                                               ; preds = %22
  tail call void @lean_dec_ref_cold(ptr noundef nonnull %0) #6
  br label %lean_dec.exit26

lean_dec.exit26:                                  ; preds = %23, %22, %20, %lean_inc.exit29
  %24 = getelementptr inbounds nuw i8, ptr %5, i64 16
  %25 = load ptr, ptr %24, align 8, !tbaa !9
  %26 = ptrtoint ptr %25 to i64
  %27 = and i64 %26, 1
  %.not53 = icmp eq i64 %27, 0
  br i1 %.not53, label %28, label %lean_inc.exit28

28:                                               ; preds = %lean_dec.exit26
  %.val.i40 = load i32, ptr %25, align 4, !tbaa !4
  %29 = icmp sgt i32 %.val.i40, 0
  br i1 %29, label %30, label %32, !prof !11

30:                                               ; preds = %28
  %31 = add nuw i32 %.val.i40, 1
  store i32 %31, ptr %25, align 4, !tbaa !4
  br label %lean_inc.exit28

32:                                               ; preds = %28
  %.not.i41 = icmp eq i32 %.val.i40, 0
  br i1 %.not.i41, label %lean_inc.exit28, label %33

33:                                               ; preds = %32
  tail call void @lean_inc_ref_cold(ptr noundef nonnull %25) #6
  br label %lean_inc.exit28

lean_inc.exit28:                                  ; preds = %33, %32, %30, %lean_dec.exit26
  br i1 %.not51, label %34, label %lean_dec.exit25

34:                                               ; preds = %lean_inc.exit28
  %35 = load i32, ptr %5, align 4, !tbaa !4
  %36 = icmp sgt i32 %35, 1
  br i1 %36, label %37, label %39, !prof !11

37:                                               ; preds = %34
  %38 = add nsw i32 %35, -1
  store i32 %38, ptr %5, align 4, !tbaa !4
  br label %lean_dec.exit25

39:                                               ; preds = %34
  %.not.i30 = icmp eq i32 %35, 0
  br i1 %.not.i30, label %lean_dec.exit25, label %40

40:                                               ; preds = %39
  tail call void @lean_dec_ref_cold(ptr noundef nonnull %5) #6
  br label %lean_dec.exit25

lean_dec.exit25:                                  ; preds = %40, %39, %37, %lean_inc.exit28
  %41 = tail call ptr @lean_apply_2(ptr noundef %25, ptr noundef nonnull inttoptr (i64 1 to ptr), ptr noundef nonnull inttoptr (i64 3 to ptr)) #6
  br label %75

lean_dec.exit24:                                  ; preds = %2
  br i1 %.not51, label %42, label %lean_inc.exit27

42:                                               ; preds = %lean_dec.exit24
  %.val.i43 = load i32, ptr %5, align 4, !tbaa !4
  %43 = icmp sgt i32 %.val.i43, 0
  br i1 %43, label %44, label %46, !prof !11

44:                                               ; preds = %42
  %45 = add nuw i32 %.val.i43, 1
  store i32 %45, ptr %5, align 4, !tbaa !4
  br label %lean_inc.exit27

46:                                               ; preds = %42
  %.not.i44 = icmp eq i32 %.val.i43, 0
  br i1 %.not.i44, label %lean_inc.exit27, label %47

47:                                               ; preds = %46
  tail call void @lean_inc_ref_cold(ptr noundef nonnull %5) #6
  br label %lean_inc.exit27

lean_inc.exit27:                                  ; preds = %47, %46, %44, %lean_dec.exit24
  %48 = ptrtoint ptr %0 to i64
  %49 = and i64 %48, 1
  %.not49 = icmp eq i64 %49, 0
  br i1 %.not49, label %50, label %lean_dec.exit23

50:                                               ; preds = %lean_inc.exit27
  %51 = load i32, ptr %0, align 4, !tbaa !4
  %52 = icmp sgt i32 %51, 1
  br i1 %52, label %53, label %55, !prof !11

53:                                               ; preds = %50
  %54 = add nsw i32 %51, -1
  store i32 %54, ptr %0, align 4, !tbaa !4
  br label %lean_dec.exit23

55:                                               ; preds = %50
  %.not.i34 = icmp eq i32 %51, 0
  br i1 %.not.i34, label %lean_dec.exit23, label %56

56:                                               ; preds = %55
  tail call void @lean_dec_ref_cold(ptr noundef nonnull %0) #6
  br label %lean_dec.exit23

lean_dec.exit23:                                  ; preds = %56, %55, %53, %lean_inc.exit27
  %57 = getelementptr inbounds nuw i8, ptr %5, i64 16
  %58 = load ptr, ptr %57, align 8, !tbaa !9
  %59 = ptrtoint ptr %58 to i64
  %60 = and i64 %59, 1
  %.not50 = icmp eq i64 %60, 0
  br i1 %.not50, label %61, label %lean_inc.exit

61:                                               ; preds = %lean_dec.exit23
  %.val.i46 = load i32, ptr %58, align 4, !tbaa !4
  %62 = icmp sgt i32 %.val.i46, 0
  br i1 %62, label %63, label %65, !prof !11

63:                                               ; preds = %61
  %64 = add nuw i32 %.val.i46, 1
  store i32 %64, ptr %58, align 4, !tbaa !4
  br label %lean_inc.exit

65:                                               ; preds = %61
  %.not.i47 = icmp eq i32 %.val.i46, 0
  br i1 %.not.i47, label %lean_inc.exit, label %66

66:                                               ; preds = %65
  tail call void @lean_inc_ref_cold(ptr noundef nonnull %58) #6
  br label %lean_inc.exit

lean_inc.exit:                                    ; preds = %66, %65, %63, %lean_dec.exit23
  br i1 %.not51, label %67, label %lean_dec.exit

67:                                               ; preds = %lean_inc.exit
  %68 = load i32, ptr %5, align 4, !tbaa !4
  %69 = icmp sgt i32 %68, 1
  br i1 %69, label %70, label %72, !prof !11

70:                                               ; preds = %67
  %71 = add nsw i32 %68, -1
  store i32 %71, ptr %5, align 4, !tbaa !4
  br label %lean_dec.exit

72:                                               ; preds = %67
  %.not.i36 = icmp eq i32 %68, 0
  br i1 %.not.i36, label %lean_dec.exit, label %73

73:                                               ; preds = %72
  tail call void @lean_dec_ref_cold(ptr noundef nonnull %5) #6
  br label %lean_dec.exit

lean_dec.exit:                                    ; preds = %73, %72, %70, %lean_inc.exit
  %74 = tail call ptr @lean_apply_2(ptr noundef %58, ptr noundef nonnull inttoptr (i64 1 to ptr), ptr noundef nonnull inttoptr (i64 1 to ptr)) #6
  br label %75

75:                                               ; preds = %lean_dec.exit, %lean_dec.exit25
  %.0 = phi ptr [ %41, %lean_dec.exit25 ], [ %74, %lean_dec.exit ]
  ret ptr %.0
}